; ModuleID = 'source-C-CXX/49/2214.c'
source_filename = "source-C-CXX/49/2214.c"
target datalayout = "e-m:e-p270:32:32-p271:32:32-p272:64:64-i64:64-f80:128-n8:16:32:64-S128"
target triple = "x86_64-pc-linux-gnu"

@.str = private unnamed_addr constant [3 x i8] c"%d\00", align 1
@.str.1 = private unnamed_addr constant [4 x i8] c"%d\0A\00", align 1

; Function Attrs: nofree nounwind sspstrong uwtable
define dso_local i32 @main() local_unnamed_addr #0 {
  %1 = alloca i32, align 4
  %2 = alloca [15 x i32], align 16
  %3 = bitcast i32* %1 to i8*
  call void @llvm.lifetime.start.p0i8(i64 4, i8* nonnull %3) #3
  %4 = bitcast [15 x i32]* %2 to i8*
  call void @llvm.lifetime.start.p0i8(i64 60, i8* nonnull %4) #3
  %5 = call i32 (i8*, ...) @__isoc99_scanf(i8* getelementptr inbounds ([3 x i8], [3 x i8]* @.str, i64 0, i64 0), i32* nonnull %1)
  %6 = getelementptr inbounds [15 x i32], [15 x i32]* %2, i64 0, i64 1
  store i32 31, i32* %6, align 4, !tbaa !5
  %7 = load i32, i32* %1, align 4, !tbaa !5
  %8 = add i32 %7, 12
  %9 = srem i32 %8, 7
  %10 = icmp eq i32 %9, 5
  br i1 %10, label %11, label %13

11:                                               ; preds = %0
  %12 = call i32 (i8*, ...) @printf(i8* nonnull dereferenceable(1) getelementptr inbounds ([4 x i8], [4 x i8]* @.str.1, i64 0, i64 0), i32 1)
  br label %13

13:                                               ; preds = %0, %11
  br label %14

14:                                               ; preds = %13, %42
  %15 = phi i64 [ %43, %42 ], [ 2, %13 ]
  %16 = phi i32 [ %34, %42 ], [ 13, %13 ]
  %17 = trunc i64 %15 to i32
  %18 = and i32 %17, 2147483641
  %19 = icmp eq i32 %18, 1
  %20 = and i32 %17, 2147483645
  %21 = icmp eq i32 %20, 8
  %22 = or i1 %21, %19
  %23 = icmp eq i64 %15, 12
  %24 = select i1 %22, i1 true, i1 %23
  %25 = icmp eq i32 %20, 9
  %26 = icmp eq i32 %20, 4
  %27 = or i1 %25, %26
  %28 = select i1 %27, i32 30, i32 28
  %29 = select i1 %24, i32 31, i32 %28
  %30 = getelementptr inbounds [15 x i32], [15 x i32]* %2, i64 0, i64 %15
  store i32 %29, i32* %30, align 4, !tbaa !5
  %31 = add nsw i64 %15, -1
  %32 = getelementptr inbounds [15 x i32], [15 x i32]* %2, i64 0, i64 %31
  %33 = load i32, i32* %32, align 4, !tbaa !5
  %34 = add nsw i32 %33, %16
  %35 = load i32, i32* %1, align 4, !tbaa !5
  %36 = add i32 %34, -1
  %37 = add i32 %36, %35
  %38 = srem i32 %37, 7
  %39 = icmp eq i32 %38, 5
  br i1 %39, label %40, label %42

40:                                               ; preds = %14
  %41 = call i32 (i8*, ...) @printf(i8* nonnull dereferenceable(1) getelementptr inbounds ([4 x i8], [4 x i8]* @.str.1, i64 0, i64 0), i32 %17)
  br label %42

42:                                               ; preds = %14, %40
  %43 = add nuw nsw i64 %15, 1
  %44 = icmp eq i64 %43, 13
  br i1 %44, label %45, label %14, !llvm.loop !9

45:                                               ; preds = %42
  call void @llvm.lifetime.end.p0i8(i64 60, i8* nonnull %4) #3
  call void @llvm.lifetime.end.p0i8(i64 4, i8* nonnull %3) #3
  ret i32 0
}

; Function Attrs: argmemonly mustprogress nofree nosync nounwind willreturn
declare void @llvm.lifetime.start.p0i8(i64 immarg, i8* nocapture) #1

; Function Attrs: nofree nounwind
declare noundef i32 @__isoc99_scanf(i8* nocapture noundef readonly, ...) local_unnamed_addr #2

; Function Attrs: nofree nounwind
declare noundef i32 @printf(i8* nocapture noundef readonly, ...) local_unnamed_addr #2

; Function Attrs: argmemonly mustprogress nofree nosync nounwind willreturn
declare void @llvm.lifetime.end.p0i8(i64 immarg, i8* nocapture) #1


!llvm.module.flags = !{!0, !1, !2, !3}
!llvm.ident = !{!4}

!0 = !{i32 1, !"wchar_size", i32 4}
!1 = !{i32 7, !"PIC Level", i32 2}
!2 = !{i32 7, !"PIE Level", i32 2}
!3 = !{i32 7, !"uwtable", i32 1}
!4 = !{!"clang version 13.0.0"}
!5 = !{!6, !6, i64 0}
!6 = !{!"int", !7, i64 0}
!7 = !{!"omnipotent char", !8, i64 0}
!8 = !{!"Simple C/C++ TBAA"}
!9 = distinct !{!9, !10, !11}
!10 = !{!"llvm.loop.mustprogress"}
!11 = !{!"llvm.loop.peeled.count", i32 1}
